(lp0
F18.461
aF18.471
aF18.481
aF18.491
aF18.501
aF18.511
aF18.521
aF18.531
aF18.541
aF18.551
aF18.561
aF18.571
aF18.581
aF18.601
aF18.611
aF18.621
aF18.631
aF18.641
aF18.651
aF18.661
aF18.671
aF18.681
aF18.691
aF18.701
aF18.711
aF18.721
aF18.731
aF18.741
aF18.751
aF18.761
aF18.771
aF18.781
aF18.791
aF18.801
aF18.811
aF18.821
aF18.831
aF18.841
aF18.851
aF18.861
aF18.871
aF18.881
aF18.891
aF18.901
aF18.911
aF18.921
aF18.931
aF18.941
aF18.951
aF18.961
aF18.971
aF18.981
aF18.991
aF19.001
aF19.011
aF19.021
aF19.031
aF19.041
aF19.051
aF19.061
aF19.071
aF19.081
aF19.091
aF19.101
aF19.111
aF19.121
aF19.131
aF19.141
aF19.151
aF19.161
aF19.171
aF19.181
aF19.191
aF19.201
aF19.211
aF19.221
aF19.231
aF19.241
aF19.251
aF19.261
aF19.271
aF19.281
aF19.291
aF19.301
aF19.311
aF19.321
aF19.331
aF19.341
aF19.351
aF19.361
aF19.371
aF19.381
aF19.391
aF19.401
aF19.411
aF19.421
aF19.431
aF19.441
aF19.451
aF19.461
aF19.471
aF19.481
aF19.491
aF19.501
aF19.511
aF19.521
aF19.531
aF19.541
aF19.551
aF19.561
aF19.571
aF19.581
aF19.591
aF19.601
aF19.611
aF19.621
aF19.631
aF19.641
aF19.651
aF19.661
aF19.671
aF19.681
aF19.691
aF19.701
aF19.711
aF19.721
aF19.731
aF19.741
aF19.751
aF19.761
aF19.771
aF19.781
aF19.791
aF19.801
aF19.811
aF19.821
aF19.831
aF19.841
aF19.851
aF19.861
aF19.871
aF19.881
aF19.891
aF19.901
aF19.911
aF19.921
aF19.931
aF19.941
aF19.951
aF19.961
aF19.971
aF19.981
aF19.991
aF20.001
aF20.011
aF20.021
aF20.031
aF20.041
aF20.051
aF20.061
aF20.071
aF20.081
aF20.091
aF20.101
aF20.111
aF20.121
aF20.131
aF20.141
aF20.151
aF20.161
aF20.171
aF20.181
aF20.191
aF20.201
aF20.211
aF20.221
aF20.231
aF20.241
aF20.251
aF20.261
aF20.271
aF20.281
aF20.291
aF20.301
aF20.311
aF20.321
aF20.331
aF20.341
aF20.351
aF20.361
aF20.371
aF20.381
aF20.391
aF20.401
aF20.411
aF20.421
aF20.431
aF20.441
aF20.451
aF20.461
aF20.471
aF20.481
aF20.491
aF20.501
aF20.511
aF20.521
aF20.531
aF20.541
aF20.551
aF20.561
aF20.571
aF20.581
aF20.591
aF20.601
aF20.611
aF20.621
aF20.631
aF20.641
aF20.651
aF20.661
aF20.671
aF20.681
aF20.691
aF20.701
aF20.711
aF20.721
aF20.731
aF20.741
aF20.751
aF20.761
aF20.771
aF20.781
aF20.791
aF20.801
aF20.811
aF20.821
aF20.831
aF20.841
aF20.851
aF20.861
aF20.871
aF20.881
aF20.891
aF20.901
aF20.911
aF20.921
aF20.931
aF20.941
aF20.951
aF20.961
aF20.971
aF20.981
aF20.991
aF21.001
aF21.011
aF21.021
aF21.031
aF21.041
aF21.051
aF21.061
aF21.071
aF21.081
aF21.091
aF21.101
aF21.111
aF21.121
aF21.131
aF21.141
aF21.151
aF21.161
aF21.171
aF21.181
aF21.191
aF21.221
aF21.231
aF21.241
aF21.251
aF21.261
aF21.271
aF21.281
aF21.291
aF21.301
aF21.311
aF21.321
aF21.331
aF21.341
aF21.351
aF21.361
aF21.371
aF21.381
aF21.391
aF21.401
aF21.411
aF21.421
aF21.431
aF21.441
aF21.451
aF21.461
aF21.471
aF21.481
aF21.521
aF21.531
aF21.541
aF21.561
aF21.571
aF21.581
aF21.591
aF21.601
aF21.631
aF21.641
aF21.661
aF21.671
aF21.681
aF21.691
aF21.701
aF21.711
aF21.721
aF21.731
aF21.741
aF21.751
aF21.761
aF21.771
aF21.781
aF21.791
aF21.801
aF21.811
aF21.821
aF21.831
aF21.841
aF21.851
aF21.861
aF21.871
aF21.881
aF21.891
aF21.901
aF21.911
aF21.921
aF21.931
aF21.941
aF21.951
aF21.961
aF21.971
aF21.981
aF21.991
aF22.001
aF22.011
aF22.021
aF22.031
aF22.041
aF22.051
aF22.061
aF22.071
aF22.081
aF22.091
aF22.101
aF22.111
aF22.121
aF22.131
aF22.141
aF22.151
aF22.161
aF22.171
aF22.181
aF22.191
aF22.201
aF22.211
aF22.221
aF22.231
aF22.241
aF22.251
aF22.261
aF22.271
aF22.281
aF22.291
aF22.301
aF22.311
aF22.321
aF22.331
aF22.341
aF22.351
aF22.361
aF22.371
aF22.381
aF22.391
aF22.401
aF22.411
aF22.421
aF22.431
aF22.441
aF22.451
aF22.461
aF22.471
aF22.481
aF22.491
aF22.501
aF22.511
aF22.521
aF22.531
aF22.541
aF22.551
aF22.571
aF22.581
aF22.591
aF22.601
aF22.611
aF22.621
aF22.631
aF22.641
aF22.651
aF22.661
aF22.671
aF22.681
aF22.691
aF22.701
aF22.711
aF22.721
aF22.731
aF22.741
aF22.751
aF22.761
aF22.771
aF22.781
aF22.791
aF22.801
aF22.811
aF22.821
aF22.831
aF22.841
aF22.851
aF22.861
aF22.871
aF22.881
aF22.891
aF22.901
aF22.911
aF22.921
aF22.931
aF22.941
aF22.951
aF22.961
aF22.971
aF22.981
aF22.991
aF23.001
aF23.011
aF23.021
aF23.031
aF23.041
aF23.051
aF23.061
aF23.071
aF23.081
aF23.091
aF23.101
aF23.111
aF23.121
aF23.131
aF23.141
aF23.151
aF23.161
aF23.171
aF23.181
aF23.191
aF23.201
aF23.211
aF23.221
aF23.231
aF23.241
aF23.251
aF23.261
aF23.271
aF23.281
aF23.291
aF23.301
aF23.311
aF23.321
aF23.331
aF23.341
aF23.351
aF23.361
aF23.371
aF23.381
aF23.391
aF23.401
aF23.411
aF23.421
aF23.431
aF23.441
aF23.451
aF23.461
aF23.471
aF23.481
aF23.491
aF23.501
aF23.511
aF23.521
aF23.531
aF23.541
aF23.551
aF23.561
aF23.571
aF23.581
aF23.591
aF23.601
aF23.611
aF23.621
aF23.631
aF23.641
aF23.651
aF23.661
aF23.671
aF23.681
aF23.691
aF23.701
aF23.711
aF23.721
aF23.731
aF23.741
aF23.751
aF23.761
aF23.801
aF23.811
aF23.821
aF23.831
aF23.841
aF23.851
aF23.861
aF23.871
aF23.881
aF23.891
aF23.901
aF23.911
aF23.921
aF23.931
aF23.941
aF23.951
aF23.961
aF23.971
aF23.981
aF23.991
aF24.001
aF24.011
aF24.021
aF24.031
aF24.041
aF24.051
aF24.061
aF24.071
aF24.081
aF24.091
aF24.101
aF24.111
aF24.121
aF24.141
aF24.151
aF24.161
aF24.171
aF24.181
aF24.191
aF24.201
aF24.211
aF24.221
aF24.231
aF24.241
aF24.251
aF24.261
aF24.271
aF24.281
aF24.291
aF24.301
aF24.311
aF24.321
aF24.331
aF24.341
aF24.351
aF24.361
aF24.371
aF24.381
aF24.391
aF24.401
aF24.421
aF24.431
aF24.441
aF24.451
aF24.461
aF24.471
aF24.481
aF24.491
aF24.501
aF24.511
aF24.521
aF24.531
aF24.541
aF24.551
aF24.561
aF24.571
aF24.581
aF24.601
aF24.611
aF24.621
aF24.631
aF24.641
aF24.651
aF24.661
aF24.671
aF24.681
aF24.691
aF24.701
aF24.711
aF24.721
aF24.731
aF24.741
aF24.751
aF24.761
aF24.771
aF24.781
aF24.791
aF24.801
aF24.811
aF24.821
aF24.831
aF24.841
aF24.851
aF24.861
aF24.871
aF24.881
aF24.891
aF24.901
aF24.911
aF24.921
aF24.931
aF24.941
aF24.951
aF24.961
aF24.971
aF24.981
aF24.991
aF25.001
aF25.011
aF25.021
aF25.031
aF25.041
aF25.051
aF25.061
aF25.071
aF25.081
aF25.091
aF25.101
aF25.111
aF25.121
aF25.131
aF25.141
aF25.151
aF25.161
aF25.171
aF25.181
aF25.191
aF25.201
aF25.211
aF25.221
aF25.231
aF25.241
aF25.251
aF25.261
aF25.271
aF25.281
aF25.291
aF25.301
aF25.311
aF25.321
aF25.331
aF25.341
aF25.351
aF25.361
aF25.371
aF25.381
aF25.391
aF25.401
aF25.411
aF25.421
aF25.431
aF25.441
aF25.451
aF25.461
aF25.471
aF25.481
aF25.491
aF25.501
aF25.511
aF25.521
aF25.531
aF25.541
aF25.551
aF25.561
aF25.571
aF25.581
aF25.591
aF25.601
aF25.611
aF25.621
aF25.631
aF25.641
aF25.651
aF25.661
aF25.671
aF25.681
aF25.691
aF25.701
aF25.711
aF25.721
aF25.731
aF25.741
aF25.751
aF25.761
aF25.771
aF25.781
aF25.791
aF25.801
aF25.811
aF25.821
aF25.831
aF25.841
aF25.851
aF25.861
aF25.871
aF25.881
aF25.891
aF25.901
aF25.911
aF25.921
aF25.931
aF25.941
aF25.951
aF25.961
aF25.971
aF25.981
aF25.991
aF26.001
aF26.011
aF26.021
aF26.031
aF26.041
aF26.051
aF26.061
aF26.071
aF26.081
aF26.091
aF26.101
aF26.111
aF26.121
aF26.131
aF26.141
aF26.151
aF26.161
aF26.171
aF26.181
aF26.191
aF26.201
aF26.211
aF26.221
aF26.231
aF26.241
aF26.251
aF26.261
aF26.271
aF26.281
aF26.291
aF26.301
aF26.311
aF26.321
aF26.331
aF26.341
aF26.351
aF26.361
aF26.371
aF26.381
aF26.391
aF26.401
aF26.411
aF26.421
aF26.431
aF26.441
aF26.451
aF26.461
aF26.471
aF26.481
aF26.491
aF26.501
aF26.511
aF26.521
aF26.531
aF26.541
aF26.551
aF26.571
aF26.581
aF26.601
aF26.611
aF26.621
aF26.631
aF26.641
aF26.651
aF26.671
aF26.681
aF26.691
aF26.701
aF26.711
aF26.721
aF26.731
aF26.741
aF26.751
aF26.761
aF26.771
aF26.781
aF26.791
aF26.801
aF26.811
aF26.821
aF26.831
aF26.841
aF26.851
aF26.871
aF26.881
aF26.891
aF26.901
aF26.911
aF26.921
aF26.931
aF26.941
aF26.951
aF26.961
aF26.971
aF26.981
aF26.991
aF27.001
aF27.011
aF27.021
aF27.031
aF27.041
aF27.051
aF27.061
aF27.071
aF27.081
aF27.091
aF27.101
aF27.111
aF27.121
aF27.131
aF27.141
aF27.151
aF27.161
aF27.171
aF27.181
aF27.191
aF27.201
aF27.211
aF27.221
aF27.231
aF27.241
aF27.261
aF27.271
aF27.281
aF27.291
aF27.301
aF27.311
aF27.321
aF27.331
aF27.341
aF27.351
aF27.361
aF27.371
aF27.381
aF27.391
aF27.401
aF27.411
aF27.421
aF27.431
aF27.441
aF27.451
aF27.461
aF27.471
aF27.481
aF27.491
aF27.501
aF27.511
aF27.521
aF27.531
aF27.541
aF27.551
aF27.561
aF27.571
aF27.581
aF27.591
aF27.601
aF27.611
aF27.621
aF27.631
aF27.641
aF27.651
aF27.661
aF27.671
aF27.681
aF27.691
aF27.701
aF27.711
aF27.721
aF27.731
aF27.741
aF27.751
aF27.761
aF27.771
aF27.781
aF27.791
aF27.801
aF27.811
aF27.821
aF27.831
aF27.841
aF27.851
aF27.861
aF27.871
aF27.881
aF27.891
aF27.901
aF27.921
aF27.931
aF27.941
aF27.951
aF27.961
aF27.971
aF27.991
aF28.001
aF28.011
aF28.021
aF28.031
aF28.041
aF28.051
aF28.061
aF28.071
aF28.081
aF28.091
aF28.101
aF28.111
aF28.121
aF28.131
aF28.141
aF28.151
aF28.161
aF28.171
aF28.181
aF28.191
aF28.201
aF28.211
aF28.221
aF28.231
aF28.241
aF28.251
aF28.261
aF28.271
aF28.281
aF28.291
aF28.301
aF28.311
aF28.321
aF28.331
aF28.341
aF28.351
aF28.361
aF28.371
aF28.381
aF28.391
aF28.401
aF28.411
aF28.421
aF28.431
aF28.441
aF28.451
aF28.461
aF28.471
aF28.481
aF28.491
aF28.501
aF28.511
aF28.521
aF28.531
aF28.541
aF28.551
aF28.561
aF28.571
aF28.581
aF28.591
aF28.601
aF28.611
aF28.621
aF28.631
aF28.641
aF28.661
aF28.671
aF28.681
aF28.691
aF28.701
aF28.711
aF28.721
aF28.731
aF28.741
aF28.751
aF28.761
aF28.771
aF28.781
aF28.791
aF28.801
aF28.811
aF28.821
aF28.831
aF28.841
aF28.851
aF28.861
aF28.871
aF28.881
aF28.891
aF28.901
aF28.911
aF28.921
aF28.931
aF28.941
aF28.951
aF28.961
aF28.971
aF28.981
aF28.991
aF29.001
aF29.011
aF29.021
aF29.031
aF29.041
aF29.051
aF29.061
aF29.071
aF29.081
aF29.091
aF29.101
aF29.111
aF29.121
aF29.131
aF29.141
aF29.151
aF29.161
aF29.171
aF29.181
aF29.191
aF29.201
aF29.211
aF29.221
aF29.231
aF29.241
aF29.251
aF29.261
aF29.271
aF29.281
aF29.291
aF29.301
aF29.311
aF29.321
aF29.331
aF29.341
aF29.351
aF29.361
aF29.371
aF29.381
aF29.391
aF29.401
aF29.411
aF29.421
aF29.431
aF29.441
aF29.451
aF29.461
aF29.471
aF29.481
aF29.491
aF29.501
aF29.511
aF29.521
aF29.531
aF29.541
aF29.551
aF29.561
aF29.571
aF29.581
aF29.591
aF29.601
aF29.611
aF29.621
aF29.631
aF29.641
aF29.651
aF29.661
aF29.671
aF29.681
aF29.691
aF29.701
aF29.711
aF29.721
aF29.731
aF29.741
aF29.761
aF29.771
aF29.781
aF29.791
aF29.801
aF29.811
aF29.821
aF29.831
aF29.841
aF29.851
aF29.861
aF29.871
aF29.881
aF29.891
aF29.901
aF29.911
aF29.921
aF29.931
aF29.941
aF29.951
aF29.961
aF29.971
aF29.981
aF29.991
aF30.001
aF30.011
aF30.021
aF30.031
aF30.041
aF30.051
aF30.061
aF30.071
aF30.081
aF30.091
aF30.101
aF30.111
aF30.121
aF30.131
aF30.141
aF30.151
aF30.161
aF30.171
aF30.181
aF30.191
aF30.201
aF30.211
aF30.221
aF30.231
aF30.241
aF30.251
aF30.261
aF30.271
aF30.281
aF30.291
aF30.301
aF30.311
aF30.321
aF30.331
aF30.341
aF30.351
aF30.361
aF30.371
aF30.381
aF30.391
aF30.401
aF30.411
aF30.421
aF30.431
aF30.441
aF30.451
aF30.461
aF30.471
aF30.481
aF30.491
aF30.501
aF30.511
aF30.521
aF30.531
aF30.541
aF30.551
aF30.561
aF30.571
aF30.581
aF30.591
aF30.601
aF30.611
aF30.621
aF30.631
aF30.641
aF30.651
aF30.661
aF30.671
aF30.681
aF30.691
aF30.701
aF30.711
aF30.721
aF30.741
aF30.751
aF30.761
aF30.771
aF30.781
aF30.791
aF30.801
aF30.811
aF30.821
aF30.831
aF30.841
aF30.871
aF30.881
aF30.891
aF30.901
aF30.911
aF30.921
aF30.931
aF30.971
aF30.981
aF30.991
aF31.001
aF31.011
aF31.021
aF31.031
aF31.041
aF31.051
aF31.061
aF31.071
aF31.081
aF31.091
aF31.101
aF31.111
aF31.121
aF31.131
aF31.141
aF31.151
aF31.161
aF31.171
aF31.181
aF31.191
aF31.201
aF31.211
aF31.221
aF31.231
aF31.241
aF31.251
aF31.261
aF31.271
aF31.281
aF31.291
aF31.301
aF31.311
aF31.321
aF31.331
aF31.341
aF31.351
aF31.361
aF31.371
aF31.381
aF31.391
aF31.401
aF31.411
aF31.421
aF31.431
aF31.441
aF31.451
aF31.461
aF31.471
aF31.481
aF31.491
aF31.501
aF31.511
aF31.521
aF31.531
aF31.541
aF31.551
aF31.571
aF31.581
aF31.591
aF31.601
aF31.611
aF31.621
aF31.631
aF31.641
aF31.651
aF31.661
aF31.671
aF31.681
aF31.691
aF31.701
aF31.711
aF31.721
aF31.741
aF31.751
aF31.761
aF31.771
aF31.781
aF31.791
aF31.801
aF31.811
aF31.821
aF31.831
aF31.841
aF31.851
aF31.861
aF31.871
aF31.881
aF31.891
aF31.901
aF31.911
aF31.921
aF31.931
aF31.951
aF31.961
aF31.971
aF31.981
aF31.991
aF32.001
aF32.011
aF32.021
aF32.031
aF32.041
aF32.051
aF32.061
aF32.071
aF32.081
aF32.091
aF32.101
aF32.111
aF32.121
aF32.131
aF32.141
aF32.151
aF32.161
aF32.171
aF32.181
aF32.191
aF32.201
aF32.211
aF32.221
aF32.231
aF32.241
aF32.251
aF32.261
aF32.271
aF32.281
aF32.291
aF32.301
aF32.311
aF32.321
aF32.331
aF32.341
aF32.351
aF32.361
aF32.371
aF32.381
aF32.391
aF32.401
aF32.411
aF32.421
aF32.431
aF32.441
aF32.451
aF32.461
aF32.471
aF32.481
aF32.501
aF32.511
aF32.521
aF32.531
aF32.541
aF32.551
aF32.561
aF32.571
aF32.581
aF32.591
aF32.601
aF32.631
aF32.641
aF32.661
aF32.671
aF32.681
aF32.691
aF32.701
aF32.711
aF32.721
aF32.731
aF32.741
aF32.751
aF32.761
aF32.771
aF32.781
aF32.791
aF32.801
aF32.811
aF32.821
aF32.831
aF32.841
aF32.851
aF32.861
aF32.881
aF32.891
aF32.901
aF32.911
aF32.921
aF32.931
aF32.941
aF32.951
aF32.961
aF32.971
aF32.981
aF32.991
aF33.001
aF33.011
aF33.021
aF33.031
aF33.041
aF33.051
aF33.061
aF33.071
aF33.081
aF33.091
aF33.101
aF33.111
aF33.121
aF33.131
aF33.141
aF33.151
aF33.161
aF33.171
aF33.181
aF33.201
aF33.211
aF33.221
aF33.231
aF33.241
aF33.251
aF33.261
aF33.271
aF33.281
aF33.291
aF33.301
aF33.311
aF33.321
aF33.331
aF33.341
aF33.351
aF33.361
aF33.371
aF33.381
aF33.391
aF33.401
aF33.411
aF33.421
aF33.431
aF33.441
aF33.451
aF33.461
aF33.471
aF33.481
aF33.491
aF33.501
aF33.511
aF33.521
aF33.531
aF33.541
aF33.551
aF33.561
aF33.571
aF33.581
aF33.591
aF33.601
aF33.611
aF33.621
aF33.631
aF33.641
aF33.651
aF33.661
aF33.671
aF33.681
aF33.691
aF33.701
aF33.721
aF33.731
aF33.741
aF33.751
aF33.761
aF33.771
aF33.791
aF33.801
aF33.811
aF33.821
aF33.831
aF33.841
aF33.851
aF33.861
aF33.871
aF33.881
aF33.891
aF33.911
aF33.921
aF33.931
aF33.941
aF33.951
aF33.961
aF33.971
aF33.981
aF33.991
aF34.001
aF34.011
aF34.041
aF34.051
aF34.061
aF34.071
aF34.081
aF34.091
aF34.101
aF34.111
aF34.121
aF34.171
aF34.181
aF34.191
aF34.201
aF34.211
aF34.221
aF34.231
aF34.241
aF34.251
aF34.261
aF34.271
aF34.281
aF34.291
aF34.301
aF34.311
aF34.321
aF34.331
aF34.341
aF34.351
aF34.361
aF34.371
aF34.381
aF34.391
aF34.401
aF34.411
aF34.421
aF34.431
aF34.441
aF34.451
aF34.471
aF34.481
aF34.491
aF34.501
aF34.511
aF34.521
aF34.531
aF34.541
aF34.551
aF34.561
aF34.571
aF34.581
aF34.591
aF34.601
aF34.611
aF34.621
aF34.631
aF34.641
aF34.651
aF34.661
aF34.671
aF34.681
aF34.691
aF34.701
aF34.721
aF34.731
aF34.741
aF34.751
aF34.761
aF34.771
aF34.781
aF34.791
aF34.801
aF34.811
aF34.821
aF34.831
aF34.841
aF34.851
aF34.861
aF34.871
aF34.881
aF34.891
aF34.901
aF34.911
aF34.921
aF34.931
aF34.941
aF34.951
aF34.961
aF34.971
aF34.981
aF34.991
aF35.001
aF35.011
aF35.021
aF35.031
aF35.041
aF35.051
aF35.061
aF35.071
aF35.081
aF35.091
aF35.101
aF35.111
aF35.121
aF35.131
aF35.141
aF35.151
aF35.161
aF35.171
aF35.181
aF35.191
aF35.201
aF35.211
aF35.221
aF35.231
aF35.241
aF35.251
aF35.261
aF35.271
aF35.281
aF35.291
aF35.301
aF35.311
aF35.321
aF35.331
aF35.341
aF35.351
aF35.361
aF35.371
aF35.381
aF35.391
aF35.401
aF35.411
aF35.421
aF35.431
aF35.441
aF35.451
aF35.461
aF35.471
aF35.481
aF35.491
aF35.501
aF35.511
aF35.521
aF35.531
aF35.541
aF35.551
aF35.561
aF35.571
aF35.581
aF35.591
aF35.601
aF35.611
aF35.621
aF35.631
aF35.641
aF35.651
aF35.661
aF35.671
aF35.681
aF35.691
aF35.701
aF35.711
aF35.721
aF35.731
aF35.741
aF35.751
aF35.761
aF35.771
aF35.781
aF35.791
aF35.801
aF35.811
aF35.821
aF35.831
aF35.841
aF35.851
aF35.861
aF35.881
aF35.891
aF35.921
aF35.931
aF35.941
aF35.951
aF35.961
aF35.991
aF36.001
aF36.061
aF36.071
aF36.101
aF36.111
aF36.121
aF36.131
aF36.141
aF36.151
aF36.161
aF36.171
aF36.181
aF36.191
aF36.201
aF36.211
aF36.221
aF36.231
aF36.241
aF36.251
aF36.261
aF36.271
aF36.281
aF36.291
aF36.301
aF36.311
aF36.321
aF36.331
aF36.341
aF36.351
aF36.361
aF36.371
a.